

Microchip Technology PIC18 LITE Macro Assembler V1.35 build -356382666 
                                                                                               Mon Feb  1 00:47:00 2016

Microchip Technology Omniscient Code Generator v1.35 (Free mode) build 201507080246
     1                           	processor	18F4550
     2                           	fnconf	rparam,??,?,0
     3                           	opt	pw 120
     4                           	opt	lm
     5                           	psect	idataCOMRAM,global,class=CODE,delta=1
     6                           	psect	cinit,global,reloc=2,class=CODE,delta=1
     7                           	psect	bssCOMRAM,global,class=COMRAM,space=1,delta=1
     8                           	psect	dataCOMRAM,global,class=COMRAM,space=1,delta=1
     9                           	psect	cstackCOMRAM,global,class=COMRAM,space=1,delta=1
    10                           	psect	text0,global,reloc=2,class=CODE,delta=1
    11                           	psect	intcode,global,reloc=2,class=CODE,delta=1
    12                           	psect	intcode_body,global,reloc=2,class=CODE,delta=1
    13                           	psect	text2,global,reloc=2,class=CODE,delta=1
    14                           	psect	intsave_regs,global,class=BIGRAM,space=1,delta=1
    15                           	psect	rparam,global,class=COMRAM,space=1,delta=1
    16                           	psect	temp,global,ovrld,common,class=COMRAM,space=1,delta=1
    17  0000                     
    18                           	psect	idataCOMRAM
    19  007F2F                     __pidataCOMRAM:
    20                           	opt stack 0
    21                           
    22                           ;initializer for Send_4Disp@Nro_Disp
    23  007F2F  01                 	db	1
    24                           
    25                           ;initializer for _MEMDIG
    26  007F30  01                 	db	1
    27                           
    28                           ;initializer for leds@i
    29  007F31  01                 	db	1
    30  0000                     _ADCON1	set	4033
    31  0000                     _CMCON	set	4020
    32  0000                     _INTCONbits	set	4082
    33  0000                     _LATA	set	3977
    34  0000                     _LATAbits	set	3977
    35  0000                     _LATB	set	3978
    36  0000                     _LATC	set	3979
    37  0000                     _LATCbits	set	3979
    38  0000                     _LATD	set	3980
    39  0000                     _LATDbits	set	3980
    40  0000                     _LATE	set	3981
    41  0000                     _LATEbits	set	3981
    42  0000                     _T0CONbits	set	4053
    43  0000                     _TMR0H	set	4055
    44  0000                     _TMR0L	set	4054
    45  0000                     _TRISA	set	3986
    46  0000                     _TRISB	set	3987
    47  0000                     _TRISCbits	set	3988
    48  0000                     _TRISD	set	3989
    49  0000                     _TRISE	set	3990
    50  0000                     _TMR0IF	set	32658
    51                           
    52                           ; #config settings
    53  0000                     
    54                           	psect	cinit
    55  007F54                     __pcinit:
    56                           	opt stack 0
    57  007F54                     start_initialization:
    58                           	opt stack 0
    59  007F54                     __initialization:
    60                           	opt stack 0
    61                           
    62                           ; Clear objects allocated to COMRAM (9 bytes)
    63  007F54  EE00  F010         	lfsr	0,__pbssCOMRAM
    64  007F58  0E09               	movlw	9
    65  007F5A                     clear_0:
    66  007F5A  6AEE               	clrf	postinc0,c
    67  007F5C  06E8               	decf	wreg,f,c
    68  007F5E  E1FD               	bnz	clear_0
    69                           
    70                           ; Initialize objects allocated to COMRAM (3 bytes)
    71                           ; load TBLPTR registers with __pidataCOMRAM
    72  007F60  0E2F               	movlw	low __pidataCOMRAM
    73  007F62  6EF6               	movwf	tblptrl,c
    74  007F64  0E7F               	movlw	high __pidataCOMRAM
    75  007F66  6EF7               	movwf	tblptrh,c
    76  007F68  0E00               	movlw	low (__pidataCOMRAM shr (0+16))
    77  007F6A  6EF8               	movwf	tblptru,c
    78  007F6C  0009               	tblrd		*+	;fetch initializer
    79  007F6E  CFF5 F019          	movff	tablat,__pdataCOMRAM
    80  007F72  0009               	tblrd		*+	;fetch initializer
    81  007F74  CFF5 F01A          	movff	tablat,__pdataCOMRAM+1
    82  007F78  0009               	tblrd		*+	;fetch initializer
    83  007F7A  CFF5 F01B          	movff	tablat,__pdataCOMRAM+2
    84  007F7E                     end_of_initialization:
    85                           	opt stack 0
    86  007F7E                     __end_of__initialization:
    87                           	opt stack 0
    88  007F7E  901C               	bcf	int$flags,0,c	;clear compiler interrupt flag (level 1)
    89  007F80  921C               	bcf	int$flags,1,c	;clear compiler interrupt flag (level 2)
    90  007F82  0E00               	movlw	low (__Lmediumconst shr (0+16))
    91  007F84  6EF8               	movwf	tblptru,c
    92  007F86  0100               	movlb	0
    93  007F88  EF99  F03F         	goto	_main	;jump to C main() function
    94                           tblptru	equ	0xFF8
    95                           tblptrh	equ	0xFF7
    96                           tblptrl	equ	0xFF6
    97                           tablat	equ	0xFF5
    98                           postinc0	equ	0xFEE
    99                           wreg	equ	0xFE8
   100                           
   101                           	psect	bssCOMRAM
   102  000010                     __pbssCOMRAM:
   103                           	opt stack 0
   104  000010                     _led_tout:
   105                           	opt stack 0
   106  000010                     	ds	2
   107  000012                     _CENT:
   108                           	opt stack 0
   109  000012                     	ds	1
   110  000013                     _DEC:
   111                           	opt stack 0
   112  000013                     	ds	1
   113  000014                     _UMIL:
   114                           	opt stack 0
   115  000014                     	ds	1
   116  000015                     _UNI:
   117                           	opt stack 0
   118  000015                     	ds	1
   119  000016                     _bot_tout:
   120                           	opt stack 0
   121  000016                     	ds	1
   122  000017                     _mux_tout:
   123                           	opt stack 0
   124  000017                     	ds	1
   125  000018                     mux_display@contdisp:
   126                           	opt stack 0
   127  000018                     	ds	1
   128                           tblptru	equ	0xFF8
   129                           tblptrh	equ	0xFF7
   130                           tblptrl	equ	0xFF6
   131                           tablat	equ	0xFF5
   132                           postinc0	equ	0xFEE
   133                           wreg	equ	0xFE8
   134                           
   135                           	psect	dataCOMRAM
   136  000019                     __pdataCOMRAM:
   137                           	opt stack 0
   138  000019                     Send_4Disp@Nro_Disp:
   139                           	opt stack 0
   140  000019                     	ds	1
   141  00001A                     _MEMDIG:
   142                           	opt stack 0
   143  00001A                     	ds	1
   144  00001B                     leds@i:
   145                           	opt stack 0
   146  00001B                     	ds	1
   147                           tblptru	equ	0xFF8
   148                           tblptrh	equ	0xFF7
   149                           tblptrl	equ	0xFF6
   150                           tablat	equ	0xFF5
   151                           postinc0	equ	0xFEE
   152                           wreg	equ	0xFE8
   153                           
   154                           	psect	cstackCOMRAM
   155  000001                     __pcstackCOMRAM:
   156                           	opt stack 0
   157  000001                     ??_myISR:
   158                           
   159                           ; 0 bytes @ 0x0
   160  000001                     	ds	14
   161  00000F                     main@ejemplo:
   162                           	opt stack 0
   163                           
   164                           ; 1 bytes @ 0xE
   165  00000F                     	ds	1
   166                           tblptru	equ	0xFF8
   167                           tblptrh	equ	0xFF7
   168                           tblptrl	equ	0xFF6
   169                           tablat	equ	0xFF5
   170                           postinc0	equ	0xFEE
   171                           wreg	equ	0xFE8
   172                           
   173 ;;
   174 ;;Main: autosize = 0, tempsize = 0, incstack = 0, save=0
   175 ;;
   176 ;; *************** function _main *****************
   177 ;; Defined at:
   178 ;;		line 13 in file "main.c"
   179 ;; Parameters:    Size  Location     Type
   180 ;;		None
   181 ;; Auto vars:     Size  Location     Type
   182 ;;  ejemplo         1   14[COMRAM] unsigned char 
   183 ;; Return value:  Size  Location     Type
   184 ;;		None               void
   185 ;; Registers used:
   186 ;;		wreg, status,2
   187 ;; Tracked objects:
   188 ;;		On entry : 0/0
   189 ;;		On exit  : 0/0
   190 ;;		Unchanged: 0/0
   191 ;; Data sizes:     COMRAM   BANK0   BANK1   BANK2   BANK3   BANK4   BANK5   BANK6   BANK7
   192 ;;      Params:         0       0       0       0       0       0       0       0       0
   193 ;;      Locals:         1       0       0       0       0       0       0       0       0
   194 ;;      Temps:          0       0       0       0       0       0       0       0       0
   195 ;;      Totals:         1       0       0       0       0       0       0       0       0
   196 ;;Total ram usage:        1 bytes
   197 ;; Hardware stack levels required when called:    2
   198 ;; This function calls:
   199 ;;		Nothing
   200 ;; This function is called by:
   201 ;;		Startup code after reset
   202 ;; This function uses a non-reentrant model
   203 ;;
   204                           
   205                           	psect	text0
   206  007F32                     __ptext0:
   207                           	opt stack 0
   208  007F32                     _main:
   209                           	opt stack 29
   210                           
   211                           ;main.c: 15: unsigned char ejemplo=0;
   212                           
   213                           ;incstack = 0
   214  007F32  0E00               	movlw	0
   215  007F34  6E0F               	movwf	main@ejemplo,c
   216  007F36  D7FF               	goto	l4
   217  007F38                     __end_of_main:
   218                           	opt stack 0
   219                           tblptru	equ	0xFF8
   220                           tblptrh	equ	0xFF7
   221                           tblptrl	equ	0xFF6
   222                           tablat	equ	0xFF5
   223                           postinc0	equ	0xFEE
   224                           wreg	equ	0xFE8
   225                           
   226 ;; *************** function _myISR *****************
   227 ;; Defined at:
   228 ;;		line 3 in file "Interrupciones.c"
   229 ;; Parameters:    Size  Location     Type
   230 ;;		None
   231 ;; Auto vars:     Size  Location     Type
   232 ;;		None
   233 ;; Return value:  Size  Location     Type
   234 ;;		None               void
   235 ;; Registers used:
   236 ;;		wreg, status,2, status,0, cstack
   237 ;; Tracked objects:
   238 ;;		On entry : 0/0
   239 ;;		On exit  : 0/0
   240 ;;		Unchanged: 0/0
   241 ;; Data sizes:     COMRAM   BANK0   BANK1   BANK2   BANK3   BANK4   BANK5   BANK6   BANK7
   242 ;;      Params:         0       0       0       0       0       0       0       0       0
   243 ;;      Locals:         0       0       0       0       0       0       0       0       0
   244 ;;      Temps:         14       0       0       0       0       0       0       0       0
   245 ;;      Totals:        14       0       0       0       0       0       0       0       0
   246 ;;Total ram usage:       14 bytes
   247 ;; Hardware stack levels used:    1
   248 ;; Hardware stack levels required when called:    1
   249 ;; This function calls:
   250 ;;		_tic_timer0
   251 ;; This function is called by:
   252 ;;		Interrupt level 2
   253 ;; This function uses a non-reentrant model
   254 ;;
   255                           
   256                           	psect	intcode
   257  002008                     __pintcode:
   258                           	opt stack 0
   259  002008                     _myISR:
   260                           	opt stack 29
   261                           
   262                           ;incstack = 0
   263  002008  821C               	bsf	btemp,1,c	;set compiler interrupt flag (level 2)
   264  00200A  CFFA F001          	movff	pclath,??_myISR
   265  00200E  CFFB F002          	movff	pclatu,??_myISR+1
   266  002012  EDC6  F03F         	call	int_func,f	;refresh shadow registers
   267                           pclatu	equ	0xFFB
   268                           pclath	equ	0xFFA
   269                           tblptru	equ	0xFF8
   270                           tblptrh	equ	0xFF7
   271                           tblptrl	equ	0xFF6
   272                           tablat	equ	0xFF5
   273                           postinc0	equ	0xFEE
   274                           wreg	equ	0xFE8
   275                           
   276                           	psect	intcode_body
   277  007F8C                     __pintcode_body:
   278                           	opt stack 29
   279  007F8C                     int_func:
   280                           	opt stack 29
   281  007F8C  0006               	pop		; remove dummy address from shadow register refresh
   282  007F8E  CFE9 F003          	movff	fsr0l,??_myISR+2
   283  007F92  CFEA F004          	movff	fsr0h,??_myISR+3
   284  007F96  CFE1 F005          	movff	fsr1l,??_myISR+4
   285  007F9A  CFE2 F006          	movff	fsr1h,??_myISR+5
   286  007F9E  CFD9 F007          	movff	fsr2l,??_myISR+6
   287  007FA2  CFDA F008          	movff	fsr2h,??_myISR+7
   288  007FA6  CFF3 F009          	movff	prodl,??_myISR+8
   289  007FAA  CFF4 F00A          	movff	prodh,??_myISR+9
   290  007FAE  CFF6 F00B          	movff	tblptrl,??_myISR+10
   291  007FB2  CFF7 F00C          	movff	tblptrh,??_myISR+11
   292  007FB6  CFF8 F00D          	movff	tblptru,??_myISR+12
   293  007FBA  CFF5 F00E          	movff	tablat,??_myISR+13
   294                           
   295                           ;Interrupciones.c: 8: if(TMR0IF){
   296  007FBE  B4F2               	btfsc	intcon,2,c	;volatile
   297                           
   298                           ;Interrupciones.c: 9: tic_timer0();
   299  007FC0  EC9C  F03F         	call	_tic_timer0	;wreg free
   300  007FC4  C00E  FFF5         	movff	??_myISR+13,tablat
   301  007FC8  C00D  FFF8         	movff	??_myISR+12,tblptru
   302  007FCC  C00C  FFF7         	movff	??_myISR+11,tblptrh
   303  007FD0  C00B  FFF6         	movff	??_myISR+10,tblptrl
   304  007FD4  C00A  FFF4         	movff	??_myISR+9,prodh
   305  007FD8  C009  FFF3         	movff	??_myISR+8,prodl
   306  007FDC  C008  FFDA         	movff	??_myISR+7,fsr2h
   307  007FE0  C007  FFD9         	movff	??_myISR+6,fsr2l
   308  007FE4  C006  FFE2         	movff	??_myISR+5,fsr1h
   309  007FE8  C005  FFE1         	movff	??_myISR+4,fsr1l
   310  007FEC  C004  FFEA         	movff	??_myISR+3,fsr0h
   311  007FF0  C003  FFE9         	movff	??_myISR+2,fsr0l
   312  007FF4  C002  FFFB         	movff	??_myISR+1,pclatu
   313  007FF8  C001  FFFA         	movff	??_myISR,pclath
   314  007FFC  921C               	bcf	btemp,1,c	;clear compiler interrupt flag (level 2)
   315  007FFE  0011               	retfie		f
   316  008000                     __end_of_myISR:
   317                           	opt stack 0
   318                           pclatu	equ	0xFFB
   319                           pclath	equ	0xFFA
   320                           tblptru	equ	0xFF8
   321                           tblptrh	equ	0xFF7
   322                           tblptrl	equ	0xFF6
   323                           tablat	equ	0xFF5
   324                           prodh	equ	0xFF4
   325                           prodl	equ	0xFF3
   326                           intcon	equ	0xFF2
   327                           postinc0	equ	0xFEE
   328                           fsr0h	equ	0xFEA
   329                           fsr0l	equ	0xFE9
   330                           wreg	equ	0xFE8
   331                           fsr1h	equ	0xFE2
   332                           fsr1l	equ	0xFE1
   333                           fsr2h	equ	0xFDA
   334                           fsr2l	equ	0xFD9
   335                           
   336 ;; *************** function _tic_timer0 *****************
   337 ;; Defined at:
   338 ;;		line 121 in file "lemos.c"
   339 ;; Parameters:    Size  Location     Type
   340 ;;		None
   341 ;; Auto vars:     Size  Location     Type
   342 ;;		None
   343 ;; Return value:  Size  Location     Type
   344 ;;		None               void
   345 ;; Registers used:
   346 ;;		wreg, status,2, status,0
   347 ;; Tracked objects:
   348 ;;		On entry : 0/0
   349 ;;		On exit  : 0/0
   350 ;;		Unchanged: 0/0
   351 ;; Data sizes:     COMRAM   BANK0   BANK1   BANK2   BANK3   BANK4   BANK5   BANK6   BANK7
   352 ;;      Params:         0       0       0       0       0       0       0       0       0
   353 ;;      Locals:         0       0       0       0       0       0       0       0       0
   354 ;;      Temps:          0       0       0       0       0       0       0       0       0
   355 ;;      Totals:         0       0       0       0       0       0       0       0       0
   356 ;;Total ram usage:        0 bytes
   357 ;; Hardware stack levels used:    1
   358 ;; This function calls:
   359 ;;		Nothing
   360 ;; This function is called by:
   361 ;;		_myISR
   362 ;; This function uses a non-reentrant model
   363 ;;
   364                           
   365                           	psect	text2
   366  007F38                     __ptext2:
   367                           	opt stack 0
   368  007F38                     _tic_timer0:
   369                           	opt stack 29
   370                           
   371                           ;lemos.c: 122: if(mux_tout)mux_tout--;
   372                           
   373                           ;incstack = 0
   374  007F38  5017               	movf	_mux_tout,w,c
   375  007F3A  A4D8               	btfss	status,2,c
   376  007F3C  0617               	decf	_mux_tout,f,c
   377                           
   378                           ;lemos.c: 123: if(bot_tout)bot_tout--;
   379  007F3E  5016               	movf	_bot_tout,w,c
   380  007F40  A4D8               	btfss	status,2,c
   381  007F42  0616               	decf	_bot_tout,f,c
   382                           
   383                           ;lemos.c: 124: if(led_tout)led_tout--;
   384  007F44  5010               	movf	_led_tout,w,c
   385  007F46  1011               	iorwf	_led_tout+1,w,c
   386  007F48  B4D8               	btfsc	status,2,c
   387  007F4A  0012               	return	
   388  007F4C  0610               	decf	_led_tout,f,c
   389  007F4E  A0D8               	btfss	status,0,c
   390  007F50  0611               	decf	_led_tout+1,f,c
   391  007F52  0012               	return	
   392  007F54                     __end_of_tic_timer0:
   393                           	opt stack 0
   394  0000                     pclatu	equ	0xFFB
   395                           pclath	equ	0xFFA
   396                           tblptru	equ	0xFF8
   397                           tblptrh	equ	0xFF7
   398                           tblptrl	equ	0xFF6
   399                           tablat	equ	0xFF5
   400                           prodh	equ	0xFF4
   401                           prodl	equ	0xFF3
   402                           intcon	equ	0xFF2
   403                           postinc0	equ	0xFEE
   404                           fsr0h	equ	0xFEA
   405                           fsr0l	equ	0xFE9
   406                           wreg	equ	0xFE8
   407                           fsr1h	equ	0xFE2
   408                           fsr1l	equ	0xFE1
   409                           fsr2h	equ	0xFDA
   410                           fsr2l	equ	0xFD9
   411                           status	equ	0xFD8
   412                           pclatu	equ	0xFFB
   413                           pclath	equ	0xFFA
   414                           tblptru	equ	0xFF8
   415                           tblptrh	equ	0xFF7
   416                           tblptrl	equ	0xFF6
   417                           tablat	equ	0xFF5
   418                           prodh	equ	0xFF4
   419                           prodl	equ	0xFF3
   420                           intcon	equ	0xFF2
   421                           postinc0	equ	0xFEE
   422                           fsr0h	equ	0xFEA
   423                           fsr0l	equ	0xFE9
   424                           wreg	equ	0xFE8
   425                           fsr1h	equ	0xFE2
   426                           fsr1l	equ	0xFE1
   427                           fsr2h	equ	0xFDA
   428                           fsr2l	equ	0xFD9
   429                           status	equ	0xFD8
   430                           
   431                           	psect	rparam
   432  0000                     pclatu	equ	0xFFB
   433                           pclath	equ	0xFFA
   434                           tblptru	equ	0xFF8
   435                           tblptrh	equ	0xFF7
   436                           tblptrl	equ	0xFF6
   437                           tablat	equ	0xFF5
   438                           prodh	equ	0xFF4
   439                           prodl	equ	0xFF3
   440                           intcon	equ	0xFF2
   441                           postinc0	equ	0xFEE
   442                           fsr0h	equ	0xFEA
   443                           fsr0l	equ	0xFE9
   444                           wreg	equ	0xFE8
   445                           fsr1h	equ	0xFE2
   446                           fsr1l	equ	0xFE1
   447                           fsr2h	equ	0xFDA
   448                           fsr2l	equ	0xFD9
   449                           status	equ	0xFD8
   450                           
   451                           	psect	temp
   452  00001C                     btemp:
   453                           	opt stack 0
   454  00001C                     	ds	1
   455  0000                     int$flags	set	btemp
   456                           pclatu	equ	0xFFB
   457                           pclath	equ	0xFFA
   458                           tblptru	equ	0xFF8
   459                           tblptrh	equ	0xFF7
   460                           tblptrl	equ	0xFF6
   461                           tablat	equ	0xFF5
   462                           prodh	equ	0xFF4
   463                           prodl	equ	0xFF3
   464                           intcon	equ	0xFF2
   465                           postinc0	equ	0xFEE
   466                           fsr0h	equ	0xFEA
   467                           fsr0l	equ	0xFE9
   468                           wreg	equ	0xFE8
   469                           fsr1h	equ	0xFE2
   470                           fsr1l	equ	0xFE1
   471                           fsr2h	equ	0xFDA
   472                           fsr2l	equ	0xFD9
   473                           status	equ	0xFD8


Data Sizes:
    Strings     0
    Constant    0
    Data        3
    BSS         9
    Persistent  0
    Stack       0

Auto Spaces:
    Space          Size  Autos    Used
    COMRAM           94     15      27
    BANK0           160      0       0
    BANK1           256      0       0
    BANK2           256      0       0
    BANK3           256      0       0
    BANK4           256      0       0
    BANK5           256      0       0
    BANK6           256      0       0
    BANK7           256      0       0

Pointer List with Targets:

    None.

Critical Paths under _main in COMRAM

    None.

Critical Paths under _myISR in COMRAM

    None.

Critical Paths under _main in BANK0

    None.

Critical Paths under _myISR in BANK0

    None.

Critical Paths under _main in BANK1

    None.

Critical Paths under _myISR in BANK1

    None.

Critical Paths under _main in BANK2

    None.

Critical Paths under _myISR in BANK2

    None.

Critical Paths under _main in BANK3

    None.

Critical Paths under _myISR in BANK3

    None.

Critical Paths under _main in BANK4

    None.

Critical Paths under _myISR in BANK4

    None.

Critical Paths under _main in BANK5

    None.

Critical Paths under _myISR in BANK5

    None.

Critical Paths under _main in BANK6

    None.

Critical Paths under _myISR in BANK6

    None.

Critical Paths under _main in BANK7

    None.

Critical Paths under _myISR in BANK7

    None.

Call Graph Tables:

 ---------------------------------------------------------------------------------
 (Depth) Function   	        Calls       Base Space   Used Autos Params    Refs
 ---------------------------------------------------------------------------------
 (0) _main                                                 1     1      0       0
                                             14 COMRAM     1     1      0
 ---------------------------------------------------------------------------------
 Estimated maximum stack depth 0
 ---------------------------------------------------------------------------------
 (Depth) Function   	        Calls       Base Space   Used Autos Params    Refs
 ---------------------------------------------------------------------------------
 (1) _myISR                                               14    14      0       0
                                              0 COMRAM    14    14      0
                         _tic_timer0
 ---------------------------------------------------------------------------------
 (2) _tic_timer0                                           0     0      0       0
 ---------------------------------------------------------------------------------
 Estimated maximum stack depth 2
 ---------------------------------------------------------------------------------

 Call Graph Graphs:

 _main (ROOT)

 _myISR (ROOT)
   _tic_timer0

 Address spaces:
Name               Size   Autos  Total    Cost      Usage
BIGRAM             7FF      0       0      21        0.0%
EEDATA             100      0       0       0        0.0%
BITBANK7           100      0       0      18        0.0%
BANK7              100      0       0      19        0.0%
BITBANK6           100      0       0      16        0.0%
BANK6              100      0       0      17        0.0%
BITBANK5           100      0       0      14        0.0%
BANK5              100      0       0      15        0.0%
BITBANK4           100      0       0      12        0.0%
BANK4              100      0       0      13        0.0%
BITBANK3           100      0       0      10        0.0%
BANK3              100      0       0      11        0.0%
BITBANK2           100      0       0       8        0.0%
BANK2              100      0       0       9        0.0%
BITBANK1           100      0       0       6        0.0%
BANK1              100      0       0       7        0.0%
BITBANK0            A0      0       0       4        0.0%
BANK0               A0      0       0       5        0.0%
BITCOMRAM           5E      0       0       0        0.0%
COMRAM              5E      F      1B       1       28.7%
BITSFR               0      0       0      40        0.0%
SFR                  0      0       0      40        0.0%
STACK                0      0       0       2        0.0%
NULL                 0      0       0       0        0.0%
ABS                  0      0      1B      20        0.0%
DATA                 0      0      1B       3        0.0%
CODE                 0      0       0       0        0.0%


Microchip Technology PIC18 Macro Assembler V1.35 build -356382666 
Symbol Table                                                                                   Mon Feb  1 00:47:00 2016

                      l4 7F36              __CFG_BOR$ON 000000              __CFG_BORV$3 000000  
           __CFG_CP0$OFF 000000             __CFG_CP1$OFF 000000                      _DEC 0013  
           __CFG_CPB$OFF 000000                      _UNI 0015                      wreg 000FE8  
           __CFG_LVP$OFF 000000              main@ejemplo 000F             __CFG_WDT$OFF 000000  
                   _CENT 0012                     _LATA 000F89                     _LATB 000F8A  
                   _LATC 000F8B                     _LATD 000F8C                     _LATE 000F8D  
                   _UMIL 0014                     _main 7F32                     fsr0h 000FEA  
                   fsr1h 000FE2                     fsr0l 000FE9                     fsr2h 000FDA  
                   fsr1l 000FE1                     fsr2l 000FD9                     btemp 001C  
                   pclat 000FFA                     prodh 000FF4                     prodl 000FF3  
                   start 2016            __CFG_IESO$OFF 000000            __CFG_MCLRE$ON 000000  
           ___param_bank 000010            __CFG_PLLDIV$5 000000                    ?_main 0001  
                  _CMCON 000FB4                    _TMR0H 000FD7                    _TMR0L 000FD6  
          __CFG_USBDIV$2 000000                    _TRISA 000F92                    _TRISB 000F93  
                  _TRISD 000F95                    _TRISE 000F96            __CFG_PWRT$OFF 000000  
          __CFG_WRT0$OFF 000000            __CFG_WRT1$OFF 000000           __CFG_EBTR0$OFF 000000  
         __CFG_FCMEN$OFF 000000           __CFG_EBTR1$OFF 000000            __CFG_WRTB$OFF 000000  
          __CFG_WRTC$OFF 000000           __CFG_EBTRB$OFF 000000                    _myISR 2008  
                  leds@i 001B                    tablat 000FF5                    status 000FD8  
        __initialization 7F54             __end_of_main 7F38                   ??_main 000F  
          __activetblptr 000002                   _ADCON1 000FC1                   ?_myISR 0001  
                 _MEMDIG 001A                   _TMR0IF 007F92           __CFG_VREGEN$ON 000000  
         __CFG_XINST$OFF 000000           __CFG_STVREN$ON 000000                   clear_0 7F5A  
           __pdataCOMRAM 0019                   tblptrh 000FF7                   tblptrl 000FF6  
                 tblptru 000FF8               __accesstop 0060  __end_of__initialization 7F7E  
        __CFG_PBADEN$OFF 000000            ___rparam_used 000001           __pcstackCOMRAM 0001  
          __end_of_myISR 8000                  ??_myISR 0001       Send_4Disp@Nro_Disp 0019  
                __Hparam 0000                  __Lparam 0000                  __pcinit 7F54  
                __ramtop 0800                  __ptext0 7F32                  __ptext2 7F38  
              _T0CONbits 000FD5      mux_display@contdisp 0018           __pintcode_body 7F8C  
   end_of_initialization 7F7E            __Lmediumconst 0000                  int_func 7F8C  
             _tic_timer0 7F38                  postinc0 000FEE                _TRISCbits 000F94  
          __pidataCOMRAM 7F2F      start_initialization 7F54              ?_tic_timer0 0001  
       __CFG_LPT1OSC$OFF 000000              __pbssCOMRAM 0010                __pintcode 2008  
    __size_of_tic_timer0 001C           __size_of_myISR 5FF8                 _LATAbits 000F89  
               _LATCbits 000F8B                 _LATDbits 000F8C                 _LATEbits 000F8D  
       __CFG_WDTPS$32768 000000                 __Hrparam 0000                 __Lrparam 0000  
               _bot_tout 0016                 _led_tout 0010            __size_of_main 0006  
           ??_tic_timer0 0001                 int$flags 001C                 _mux_tout 0017  
  __CFG_CPUDIV$OSC1_PLL2 000000               _INTCONbits 000FF2       __end_of_tic_timer0 7F54  
               intlevel2 0000       __CFG_FOSC$HSPLL_HS 000000  
